; Function Attrs: mustprogress uwtable
define noundef double @_ZNK8QuantLib6Basket18defaultCorrelationERKNS_4DateEmm(ptr noundef nonnull align 8 dereferenceable(272) %this, ptr noundef nonnull align 8 dereferenceable(8) %d, i64 noundef %iName, i64 noundef %jName) local_unnamed_addr #8 align 2 {
entry:
  %vtable = load ptr, ptr %this, align 8, !tbaa !33
  %vfn = getelementptr inbounds i8, ptr %vtable, i64 24
  %0 = load ptr, ptr %vfn, align 8
  tail call void %0(ptr noundef nonnull align 8 dereferenceable(12) %this)
  %lossModel_ = getelementptr inbounds nuw i8, ptr %this, i64 256
  %1 = load ptr, ptr %lossModel_, align 8, !tbaa !106
  %cmp.not.i = icmp eq ptr %1, null
  br i1 %cmp.not.i, label %cond.false.i, label %_ZNK5boost10shared_ptrIN8QuantLib16DefaultLossModelEEptEv.exit, !prof !123

cond.false.i:                                     ; preds = %entry
  tail call void @_ZN5boost16assertion_failedEPKcS1_S1_l(ptr noundef nonnull @.str.11, ptr noundef nonnull @__PRETTY_FUNCTION__._ZNK5boost10shared_ptrIN8QuantLib16DefaultLossModelEEptEv, ptr noundef nonnull @.str.12, i64 noundef 784)
  %.pre.i = load ptr, ptr %lossModel_, align 8, !tbaa !106
  br label %_ZNK5boost10shared_ptrIN8QuantLib16DefaultLossModelEEptEv.exit

_ZNK5boost10shared_ptrIN8QuantLib16DefaultLossModelEEptEv.exit: ; preds = %entry, %cond.false.i
  %2 = phi ptr [ %1, %entry ], [ %.pre.i, %cond.false.i ]
  %vtable2 = load ptr, ptr %2, align 8, !tbaa !33
  %vfn3 = getelementptr inbounds i8, ptr %vtable2, i64 88
  %3 = load ptr, ptr %vfn3, align 8
  %call4 = tail call noundef double %3(ptr noundef nonnull align 8 dereferenceable(72) %2, ptr noundef nonnull align 8 dereferenceable(8) %d, i64 noundef %iName, i64 noundef %jName)
  ret double %call4
}